; Function Attrs: nounwind uwtable
define ptr @l_Lean_logAt___at_Lean_initFn____x40_Lean_Elab_InheritDoc___hyg_3____spec__4___boxed(ptr noundef %0, ptr noundef %1, ptr noundef %2, ptr noundef %3, ptr noundef %4, ptr noundef %5, ptr noundef %6) local_unnamed_addr #0 {
  %8 = ptrtoint ptr %2 to i64
  %9 = lshr i64 %8, 1
  %10 = trunc i64 %9 to i8
  %11 = and i64 %8, 1
  %.not = icmp eq i64 %11, 0
  br i1 %.not, label %12, label %lean_dec.exit15

12:                                               ; preds = %7
  %13 = load i32, ptr %2, align 4, !tbaa !8
  %14 = icmp sgt i32 %13, 1
  br i1 %14, label %15, label %17, !prof !11

15:                                               ; preds = %12
  %16 = add nsw i32 %13, -1
  store i32 %16, ptr %2, align 4, !tbaa !8
  br label %lean_dec.exit15

17:                                               ; preds = %12
  %.not.i = icmp eq i32 %13, 0
  br i1 %.not.i, label %lean_dec.exit15, label %18

18:                                               ; preds = %17
  tail call void @lean_dec_ref_cold(ptr noundef nonnull %2) #5
  br label %lean_dec.exit15

lean_dec.exit15:                                  ; preds = %18, %17, %15, %7
  %19 = ptrtoint ptr %3 to i64
  %20 = lshr i64 %19, 1
  %21 = trunc i64 %20 to i8
  %22 = and i64 %19, 1
  %.not22 = icmp eq i64 %22, 0
  br i1 %.not22, label %23, label %lean_dec.exit14

23:                                               ; preds = %lean_dec.exit15
  %24 = load i32, ptr %3, align 4, !tbaa !8
  %25 = icmp sgt i32 %24, 1
  br i1 %25, label %26, label %28, !prof !11

26:                                               ; preds = %23
  %27 = add nsw i32 %24, -1
  store i32 %27, ptr %3, align 4, !tbaa !8
  br label %lean_dec.exit14

28:                                               ; preds = %23
  %.not.i16 = icmp eq i32 %24, 0
  br i1 %.not.i16, label %lean_dec.exit14, label %29

29:                                               ; preds = %28
  tail call void @lean_dec_ref_cold(ptr noundef nonnull %3) #5
  br label %lean_dec.exit14

lean_dec.exit14:                                  ; preds = %29, %28, %26, %lean_dec.exit15
  %30 = tail call ptr @l_Lean_logAt___at_Lean_initFn____x40_Lean_Elab_InheritDoc___hyg_3____spec__4(ptr noundef %0, ptr noundef %1, i8 noundef zeroext %10, i8 noundef zeroext %21, ptr noundef %4, ptr noundef %5, ptr noundef %6)
  %31 = ptrtoint ptr %5 to i64
  %32 = and i64 %31, 1
  %.not23 = icmp eq i64 %32, 0
  br i1 %.not23, label %33, label %lean_dec.exit13

33:                                               ; preds = %lean_dec.exit14
  %34 = load i32, ptr %5, align 4, !tbaa !8
  %35 = icmp sgt i32 %34, 1
  br i1 %35, label %36, label %38, !prof !11

36:                                               ; preds = %33
  %37 = add nsw i32 %34, -1
  store i32 %37, ptr %5, align 4, !tbaa !8
  br label %lean_dec.exit13

38:                                               ; preds = %33
  %.not.i18 = icmp eq i32 %34, 0
  br i1 %.not.i18, label %lean_dec.exit13, label %39

39:                                               ; preds = %38
  tail call void @lean_dec_ref_cold(ptr noundef nonnull %5) #5
  br label %lean_dec.exit13

lean_dec.exit13:                                  ; preds = %39, %38, %36, %lean_dec.exit14
  %40 = ptrtoint ptr %0 to i64
  %41 = and i64 %40, 1
  %.not24 = icmp eq i64 %41, 0
  br i1 %.not24, label %42, label %lean_dec.exit

42:                                               ; preds = %lean_dec.exit13
  %43 = load i32, ptr %0, align 4, !tbaa !8
  %44 = icmp sgt i32 %43, 1
  br i1 %44, label %45, label %47, !prof !11

45:                                               ; preds = %42
  %46 = add nsw i32 %43, -1
  store i32 %46, ptr %0, align 4, !tbaa !8
  br label %lean_dec.exit

47:                                               ; preds = %42
  %.not.i20 = icmp eq i32 %43, 0
  br i1 %.not.i20, label %lean_dec.exit, label %48

48:                                               ; preds = %47
  tail call void @lean_dec_ref_cold(ptr noundef nonnull %0) #5
  br label %lean_dec.exit

lean_dec.exit:                                    ; preds = %48, %47, %45, %lean_dec.exit13
  ret ptr %30
}